target datalayout = "e-m:e-p270:32:32-p271:32:32-p272:64:64-i64:64-i128:128-f80:128-n8:16:32:64-S128"
target triple = "x86_64-pc-linux-gnu"

%struct.WindowAgg = type { %struct.Plan, i32, i32, ptr, ptr, ptr, i32, ptr, ptr, ptr, i32, ptr, ptr, ptr, ptr, i32, i32, i32, i8, i8, i8 }
%struct.Plan = type { i32, i32, double, double, double, i32, i8, i8, i8, i32, ptr, ptr, ptr, ptr, ptr, ptr, ptr }
%struct.WindowAggState = type { %struct.ScanState, ptr, i32, i32, ptr, ptr, ptr, ptr, ptr, i32, i32, i32, i32, i64, i64, i64, i64, ptr, i64, i64, i32, i32, ptr, ptr, i64, i64, %struct.FmgrInfo, %struct.FmgrInfo, i32, i8, i8, i8, i8, ptr, i64, i64, i64, i64, i64, ptr, ptr, ptr, ptr, i8, i8, i8, i8, i8, i8, i8, ptr, ptr, ptr, ptr, ptr, ptr }
%struct.ScanState = type { %struct.PlanState, ptr, ptr, ptr }
%struct.PlanState = type { i32, ptr, ptr, ptr, ptr, ptr, ptr, ptr, ptr, ptr, ptr, ptr, ptr, ptr, ptr, ptr, ptr, ptr, i8, ptr, ptr, ptr, ptr, ptr, i8, i8, i8, i8, i8, i8, i8, i8 }
%struct.FmgrInfo = type { ptr, i32, i16, i8, i8, i8, ptr, ptr, ptr }
%struct.ExprContext = type { i32, ptr, ptr, ptr, ptr, ptr, ptr, ptr, ptr, ptr, i64, i8, i64, i8, ptr, ptr, ptr, ptr }
%struct.ExprState = type { i32, i8, i8, i64, ptr, ptr, ptr, ptr, ptr, i32, i32, ptr, ptr, ptr, ptr, ptr, ptr, ptr }

@CurrentMemoryContext = external global ptr, align 8

; Function Attrs: inlinehint nounwind uwtable
define internal ptr @MemoryContextSwitchTo(ptr noundef %0) #2 {
  %2 = alloca ptr, align 8
  %3 = alloca ptr, align 8
  store ptr %0, ptr %2, align 8
  call void @llvm.lifetime.start.p0(i64 8, ptr %3) #8
  %4 = load ptr, ptr @CurrentMemoryContext, align 8
  store ptr %4, ptr %3, align 8
  %5 = load ptr, ptr %2, align 8
  store ptr %5, ptr @CurrentMemoryContext, align 8
  %6 = load ptr, ptr %3, align 8
  call void @llvm.lifetime.end.p0(i64 8, ptr %3) #8
  ret ptr %6
}

; Function Attrs: inlinehint nounwind uwtable
define internal zeroext i1 @DatumGetBool(i64 noundef %0) #2 {
  %2 = alloca i64, align 8
  store i64 %0, ptr %2, align 8
  %3 = load i64, ptr %2, align 8
  %4 = icmp ne i64 %3, 0
  ret i1 %4
}

; Function Attrs: inlinehint nounwind uwtable
define internal i64 @ExecEvalExprSwitchContext(ptr noundef %0, ptr noundef %1, ptr noundef %2) #2 {
  %4 = alloca ptr, align 8
  %5 = alloca ptr, align 8
  %6 = alloca ptr, align 8
  %7 = alloca i64, align 8
  %8 = alloca ptr, align 8
  store ptr %0, ptr %4, align 8
  store ptr %1, ptr %5, align 8
  store ptr %2, ptr %6, align 8
  call void @llvm.lifetime.start.p0(i64 8, ptr %7) #8
  call void @llvm.lifetime.start.p0(i64 8, ptr %8) #8
  %9 = load ptr, ptr %5, align 8
  %10 = getelementptr inbounds nuw %struct.ExprContext, ptr %9, i32 0, i32 5
  %11 = load ptr, ptr %10, align 8
  %12 = call ptr @MemoryContextSwitchTo(ptr noundef %11)
  store ptr %12, ptr %8, align 8
  %13 = load ptr, ptr %4, align 8
  %14 = getelementptr inbounds nuw %struct.ExprState, ptr %13, i32 0, i32 6
  %15 = load ptr, ptr %14, align 8
  %16 = load ptr, ptr %4, align 8
  %17 = load ptr, ptr %5, align 8
  %18 = load ptr, ptr %6, align 8
  %19 = call i64 %15(ptr noundef %16, ptr noundef %17, ptr noundef %18)
  store i64 %19, ptr %7, align 8
  %20 = load ptr, ptr %8, align 8
  %21 = call ptr @MemoryContextSwitchTo(ptr noundef %20)
  %22 = load i64, ptr %7, align 8
  call void @llvm.lifetime.end.p0(i64 8, ptr %8) #8
  call void @llvm.lifetime.end.p0(i64 8, ptr %7) #8
  ret i64 %22
}

; Function Attrs: inlinehint nounwind uwtable
define internal zeroext i1 @ExecQual(ptr noundef %0, ptr noundef %1) #2 {
  %3 = alloca i1, align 1
  %4 = alloca ptr, align 8
  %5 = alloca ptr, align 8
  %6 = alloca i64, align 8
  %7 = alloca i8, align 1
  %8 = alloca i32, align 4
  store ptr %0, ptr %4, align 8
  store ptr %1, ptr %5, align 8
  call void @llvm.lifetime.start.p0(i64 8, ptr %6) #8
  call void @llvm.lifetime.start.p0(i64 1, ptr %7) #8
  %9 = load ptr, ptr %4, align 8
  %10 = icmp eq ptr %9, null
  br i1 %10, label %11, label %12

11:                                               ; preds = %2
  store i1 true, ptr %3, align 1
  store i32 1, ptr %8, align 4
  br label %18

12:                                               ; preds = %2
  %13 = load ptr, ptr %4, align 8
  %14 = load ptr, ptr %5, align 8
  %15 = call i64 @ExecEvalExprSwitchContext(ptr noundef %13, ptr noundef %14, ptr noundef %7)
  store i64 %15, ptr %6, align 8
  %16 = load i64, ptr %6, align 8
  %17 = call zeroext i1 @DatumGetBool(i64 noundef %16)
  store i1 %17, ptr %3, align 1
  store i32 1, ptr %8, align 4
  br label %18

18:                                               ; preds = %12, %11
  call void @llvm.lifetime.end.p0(i64 1, ptr %7) #8
  call void @llvm.lifetime.end.p0(i64 8, ptr %6) #8
  %19 = load i1, ptr %3, align 1
  ret i1 %19
}

; Function Attrs: inlinehint nounwind uwtable
define internal zeroext i1 @ExecQualAndReset(ptr noundef %0, ptr noundef %1) #2 {
  %3 = alloca ptr, align 8
  %4 = alloca ptr, align 8
  %5 = alloca i8, align 1
  store ptr %0, ptr %3, align 8
  store ptr %1, ptr %4, align 8
  call void @llvm.lifetime.start.p0(i64 1, ptr %5) #8
  %6 = load ptr, ptr %3, align 8
  %7 = load ptr, ptr %4, align 8
  %8 = call zeroext i1 @ExecQual(ptr noundef %6, ptr noundef %7)
  %9 = zext i1 %8 to i8
  store i8 %9, ptr %5, align 1
  %10 = load ptr, ptr %4, align 8
  %11 = getelementptr inbounds nuw %struct.ExprContext, ptr %10, i32 0, i32 5
  %12 = load ptr, ptr %11, align 8
  call void @MemoryContextReset(ptr noundef %12)
  %13 = load i8, ptr %5, align 1, !range !4, !noundef !5
  %14 = trunc i8 %13 to i1
  call void @llvm.lifetime.end.p0(i64 1, ptr %5) #8
  ret i1 %14
}

; Function Attrs: inlinehint nounwind uwtable
define internal i64 @DatumGetInt64(i64 noundef %0) #2 {
  %2 = alloca i64, align 8
  store i64 %0, ptr %2, align 8
  %3 = load i64, ptr %2, align 8
  ret i64 %3
}

; Function Attrs: nounwind uwtable
define internal zeroext i1 @are_peers(ptr noundef %0, ptr noundef %1, ptr noundef %2) #0 {
  %4 = alloca i1, align 1
  %5 = alloca ptr, align 8
  %6 = alloca ptr, align 8
  %7 = alloca ptr, align 8
  %8 = alloca ptr, align 8
  %9 = alloca ptr, align 8
  %10 = alloca i32, align 4
  store ptr %0, ptr %5, align 8
  store ptr %1, ptr %6, align 8
  store ptr %2, ptr %7, align 8
  call void @llvm.lifetime.start.p0(i64 8, ptr %8) #8
  %11 = load ptr, ptr %5, align 8
  %12 = getelementptr inbounds nuw %struct.WindowAggState, ptr %11, i32 0, i32 0
  %13 = getelementptr inbounds nuw %struct.ScanState, ptr %12, i32 0, i32 0
  %14 = getelementptr inbounds nuw %struct.PlanState, ptr %13, i32 0, i32 1
  %15 = load ptr, ptr %14, align 8
  store ptr %15, ptr %8, align 8
  call void @llvm.lifetime.start.p0(i64 8, ptr %9) #8
  %16 = load ptr, ptr %5, align 8
  %17 = getelementptr inbounds nuw %struct.WindowAggState, ptr %16, i32 0, i32 42
  %18 = load ptr, ptr %17, align 8
  store ptr %18, ptr %9, align 8
  %19 = load ptr, ptr %8, align 8
  %20 = getelementptr inbounds nuw %struct.WindowAgg, ptr %19, i32 0, i32 6
  %21 = load i32, ptr %20, align 8
  %22 = icmp eq i32 %21, 0
  br i1 %22, label %23, label %24

23:                                               ; preds = %3
  store i1 true, ptr %4, align 1
  store i32 1, ptr %10, align 4
  br label %36

24:                                               ; preds = %3
  %25 = load ptr, ptr %6, align 8
  %26 = load ptr, ptr %9, align 8
  %27 = getelementptr inbounds nuw %struct.ExprContext, ptr %26, i32 0, i32 3
  store ptr %25, ptr %27, align 8
  %28 = load ptr, ptr %7, align 8
  %29 = load ptr, ptr %9, align 8
  %30 = getelementptr inbounds nuw %struct.ExprContext, ptr %29, i32 0, i32 2
  store ptr %28, ptr %30, align 8
  %31 = load ptr, ptr %5, align 8
  %32 = getelementptr inbounds nuw %struct.WindowAggState, ptr %31, i32 0, i32 7
  %33 = load ptr, ptr %32, align 8
  %34 = load ptr, ptr %9, align 8
  %35 = call zeroext i1 @ExecQualAndReset(ptr noundef %33, ptr noundef %34)
  store i1 %35, ptr %4, align 1
  store i32 1, ptr %10, align 4
  br label %36

36:                                               ; preds = %24, %23
  call void @llvm.lifetime.end.p0(i64 8, ptr %9) #8
  call void @llvm.lifetime.end.p0(i64 8, ptr %8) #8
  %37 = load i1, ptr %4, align 1
  ret i1 %37
}

; Function Attrs: nounwind uwtable
define internal i32 @row_is_in_frame(ptr noundef %0, i64 noundef %1, ptr noundef %2) #0 {
  %4 = alloca i32, align 4
  %5 = alloca ptr, align 8
  %6 = alloca i64, align 8
  %7 = alloca ptr, align 8
  %8 = alloca i32, align 4
  %9 = alloca i32, align 4
  %10 = alloca i64, align 8
  %11 = alloca ptr, align 8
  store ptr %0, ptr %5, align 8
  store i64 %1, ptr %6, align 8
  store ptr %2, ptr %7, align 8
  call void @llvm.lifetime.start.p0(i64 4, ptr %8) #8
  %12 = load ptr, ptr %5, align 8
  %13 = getelementptr inbounds nuw %struct.WindowAggState, ptr %12, i32 0, i32 21
  %14 = load i32, ptr %13, align 4
  store i32 %14, ptr %8, align 4
  %15 = load ptr, ptr %5, align 8
  call void @update_frameheadpos(ptr noundef %15)
  %16 = load i64, ptr %6, align 8
  %17 = load ptr, ptr %5, align 8
  %18 = getelementptr inbounds nuw %struct.WindowAggState, ptr %17, i32 0, i32 15
  %19 = load i64, ptr %18, align 8
  %20 = icmp slt i64 %16, %19
  br i1 %20, label %21, label %22

21:                                               ; preds = %3
  store i32 0, ptr %4, align 4
  store i32 1, ptr %9, align 4
  br label %168

22:                                               ; preds = %3
  %23 = load i32, ptr %8, align 4
  %24 = and i32 %23, 1024
  %25 = icmp ne i32 %24, 0
  br i1 %25, label %26, label %61

26:                                               ; preds = %22
  %27 = load i32, ptr %8, align 4
  %28 = and i32 %27, 4
  %29 = icmp ne i32 %28, 0
  br i1 %29, label %30, label %38

30:                                               ; preds = %26
  %31 = load i64, ptr %6, align 8
  %32 = load ptr, ptr %5, align 8
  %33 = getelementptr inbounds nuw %struct.WindowAggState, ptr %32, i32 0, i32 14
  %34 = load i64, ptr %33, align 8
  %35 = icmp sgt i64 %31, %34
  br i1 %35, label %36, label %37

36:                                               ; preds = %30
  store i32 -1, ptr %4, align 4
  store i32 1, ptr %9, align 4
  br label %168

37:                                               ; preds = %30
  br label %60

38:                                               ; preds = %26
  %39 = load i32, ptr %8, align 4
  %40 = and i32 %39, 10
  %41 = icmp ne i32 %40, 0
  br i1 %41, label %42, label %58

42:                                               ; preds = %38
  %43 = load i64, ptr %6, align 8
  %44 = load ptr, ptr %5, align 8
  %45 = getelementptr inbounds nuw %struct.WindowAggState, ptr %44, i32 0, i32 14
  %46 = load i64, ptr %45, align 8
  %47 = icmp sgt i64 %43, %46
  br i1 %47, label %48, label %57

48:                                               ; preds = %42
  %49 = load ptr, ptr %5, align 8
  %50 = load ptr, ptr %7, align 8
  %51 = load ptr, ptr %5, align 8
  %52 = getelementptr inbounds nuw %struct.WindowAggState, ptr %51, i32 0, i32 0
  %53 = getelementptr inbounds nuw %struct.ScanState, ptr %52, i32 0, i32 3
  %54 = load ptr, ptr %53, align 8
  %55 = call zeroext i1 @are_peers(ptr noundef %49, ptr noundef %50, ptr noundef %54)
  br i1 %55, label %57, label %56

56:                                               ; preds = %48
  store i32 -1, ptr %4, align 4
  store i32 1, ptr %9, align 4
  br label %168

57:                                               ; preds = %48, %42
  br label %59

58:                                               ; preds = %38
  br label %59

59:                                               ; preds = %58, %57
  br label %60

60:                                               ; preds = %59, %37
  br label %110

61:                                               ; preds = %22
  %62 = load i32, ptr %8, align 4
  %63 = and i32 %62, 20480
  %64 = icmp ne i32 %63, 0
  br i1 %64, label %65, label %109

65:                                               ; preds = %61
  %66 = load i32, ptr %8, align 4
  %67 = and i32 %66, 4
  %68 = icmp ne i32 %67, 0
  br i1 %68, label %69, label %93

69:                                               ; preds = %65
  call void @llvm.lifetime.start.p0(i64 8, ptr %10) #8
  %70 = load ptr, ptr %5, align 8
  %71 = getelementptr inbounds nuw %struct.WindowAggState, ptr %70, i32 0, i32 25
  %72 = load i64, ptr %71, align 8
  %73 = call i64 @DatumGetInt64(i64 noundef %72)
  store i64 %73, ptr %10, align 8
  %74 = load i32, ptr %8, align 4
  %75 = and i32 %74, 4096
  %76 = icmp ne i32 %75, 0
  br i1 %76, label %77, label %80

77:                                               ; preds = %69
  %78 = load i64, ptr %10, align 8
  %79 = sub i64 0, %78
  store i64 %79, ptr %10, align 8
  br label %80

80:                                               ; preds = %77, %69
  %81 = load i64, ptr %6, align 8
  %82 = load ptr, ptr %5, align 8
  %83 = getelementptr inbounds nuw %struct.WindowAggState, ptr %82, i32 0, i32 14
  %84 = load i64, ptr %83, align 8
  %85 = load i64, ptr %10, align 8
  %86 = add i64 %84, %85
  %87 = icmp sgt i64 %81, %86
  br i1 %87, label %88, label %89

88:                                               ; preds = %80
  store i32 -1, ptr %4, align 4
  store i32 1, ptr %9, align 4
  br label %90

89:                                               ; preds = %80
  store i32 0, ptr %9, align 4
  br label %90

90:                                               ; preds = %89, %88
  call void @llvm.lifetime.end.p0(i64 8, ptr %10) #8
  %91 = load i32, ptr %9, align 4
  switch i32 %91, label %168 [
    i32 0, label %92
  ]

92:                                               ; preds = %90
  br label %108

93:                                               ; preds = %65
  %94 = load i32, ptr %8, align 4
  %95 = and i32 %94, 10
  %96 = icmp ne i32 %95, 0
  br i1 %96, label %97, label %106

97:                                               ; preds = %93
  %98 = load ptr, ptr %5, align 8
  call void @update_frametailpos(ptr noundef %98)
  %99 = load i64, ptr %6, align 8
  %100 = load ptr, ptr %5, align 8
  %101 = getelementptr inbounds nuw %struct.WindowAggState, ptr %100, i32 0, i32 16
  %102 = load i64, ptr %101, align 8
  %103 = icmp sge i64 %99, %102
  br i1 %103, label %104, label %105

104:                                              ; preds = %97
  store i32 -1, ptr %4, align 4
  store i32 1, ptr %9, align 4
  br label %168

105:                                              ; preds = %97
  br label %107

106:                                              ; preds = %93
  br label %107

107:                                              ; preds = %106, %105
  br label %108

108:                                              ; preds = %107, %92
  br label %109

109:                                              ; preds = %108, %61
  br label %110

110:                                              ; preds = %109, %60
  %111 = load i32, ptr %8, align 4
  %112 = and i32 %111, 32768
  %113 = icmp ne i32 %112, 0
  br i1 %113, label %114, label %122

114:                                              ; preds = %110
  %115 = load i64, ptr %6, align 8
  %116 = load ptr, ptr %5, align 8
  %117 = getelementptr inbounds nuw %struct.WindowAggState, ptr %116, i32 0, i32 14
  %118 = load i64, ptr %117, align 8
  %119 = icmp eq i64 %115, %118
  br i1 %119, label %120, label %121

120:                                              ; preds = %114
  store i32 0, ptr %4, align 4
  store i32 1, ptr %9, align 4
  br label %168

121:                                              ; preds = %114
  br label %167

122:                                              ; preds = %110
  %123 = load i32, ptr %8, align 4
  %124 = and i32 %123, 65536
  %125 = icmp ne i32 %124, 0
  br i1 %125, label %136, label %126

126:                                              ; preds = %122
  %127 = load i32, ptr %8, align 4
  %128 = and i32 %127, 131072
  %129 = icmp ne i32 %128, 0
  br i1 %129, label %130, label %166

130:                                              ; preds = %126
  %131 = load i64, ptr %6, align 8
  %132 = load ptr, ptr %5, align 8
  %133 = getelementptr inbounds nuw %struct.WindowAggState, ptr %132, i32 0, i32 14
  %134 = load i64, ptr %133, align 8
  %135 = icmp ne i64 %131, %134
  br i1 %135, label %136, label %166

136:                                              ; preds = %130, %122
  call void @llvm.lifetime.start.p0(i64 8, ptr %11) #8
  %137 = load ptr, ptr %5, align 8
  %138 = getelementptr inbounds nuw %struct.WindowAggState, ptr %137, i32 0, i32 0
  %139 = getelementptr inbounds nuw %struct.ScanState, ptr %138, i32 0, i32 0
  %140 = getelementptr inbounds nuw %struct.PlanState, ptr %139, i32 0, i32 1
  %141 = load ptr, ptr %140, align 8
  store ptr %141, ptr %11, align 8
  %142 = load ptr, ptr %11, align 8
  %143 = getelementptr inbounds nuw %struct.WindowAgg, ptr %142, i32 0, i32 6
  %144 = load i32, ptr %143, align 8
  %145 = icmp eq i32 %144, 0
  br i1 %145, label %146, label %147

146:                                              ; preds = %136
  store i32 0, ptr %4, align 4
  store i32 1, ptr %9, align 4
  br label %163

147:                                              ; preds = %136
  %148 = load i64, ptr %6, align 8
  %149 = load ptr, ptr %5, align 8
  %150 = getelementptr inbounds nuw %struct.WindowAggState, ptr %149, i32 0, i32 37
  %151 = load i64, ptr %150, align 8
  %152 = icmp sge i64 %148, %151
  br i1 %152, label %153, label %162

153:                                              ; preds = %147
  %154 = load ptr, ptr %5, align 8
  call void @update_grouptailpos(ptr noundef %154)
  %155 = load i64, ptr %6, align 8
  %156 = load ptr, ptr %5, align 8
  %157 = getelementptr inbounds nuw %struct.WindowAggState, ptr %156, i32 0, i32 38
  %158 = load i64, ptr %157, align 8
  %159 = icmp slt i64 %155, %158
  br i1 %159, label %160, label %161

160:                                              ; preds = %153
  store i32 0, ptr %4, align 4
  store i32 1, ptr %9, align 4
  br label %163

161:                                              ; preds = %153
  br label %162

162:                                              ; preds = %161, %147
  store i32 0, ptr %9, align 4
  br label %163

163:                                              ; preds = %162, %160, %146
  call void @llvm.lifetime.end.p0(i64 8, ptr %11) #8
  %164 = load i32, ptr %9, align 4
  switch i32 %164, label %168 [
    i32 0, label %165
  ]

165:                                              ; preds = %163
  br label %166

166:                                              ; preds = %165, %130, %126
  br label %167

167:                                              ; preds = %166, %121
  store i32 1, ptr %4, align 4
  store i32 1, ptr %9, align 4
  br label %168

168:                                              ; preds = %167, %163, %120, %104, %90, %56, %36, %21
  call void @llvm.lifetime.end.p0(i64 4, ptr %8) #8
  %169 = load i32, ptr %4, align 4
  ret i32 %169
}