; Function Attrs: nounwind uwtable
define internal fastcc range(i32 -1, 2) i32 @row_is_in_frame(ptr noundef %0, i64 noundef %1, ptr noundef %2) unnamed_addr #0 {
  %4 = alloca i8, align 1
  %5 = getelementptr inbounds nuw i8, ptr %0, i64 356
  %6 = load i32, ptr %5, align 4
  tail call fastcc void @update_frameheadpos(ptr noundef %0)
  %7 = getelementptr inbounds nuw i8, ptr %0, i64 312
  %8 = load i64, ptr %7, align 8
  %9 = icmp slt i64 %1, %8
  br i1 %9, label %.thread, label %10

10:                                               ; preds = %3
  %11 = and i32 %6, 1024
  %.not = icmp eq i32 %11, 0
  br i1 %.not, label %49, label %12

12:                                               ; preds = %10
  %13 = and i32 %6, 4
  %.not53 = icmp eq i32 %13, 0
  br i1 %.not53, label %18, label %14

14:                                               ; preds = %12
  %15 = getelementptr inbounds nuw i8, ptr %0, i64 304
  %16 = load i64, ptr %15, align 8
  %17 = icmp sgt i64 %1, %16
  br i1 %17, label %.thread, label %are_peers.exit.thread

18:                                               ; preds = %12
  %19 = and i32 %6, 10
  %.not54 = icmp eq i32 %19, 0
  br i1 %.not54, label %are_peers.exit.thread, label %20

20:                                               ; preds = %18
  %21 = getelementptr inbounds nuw i8, ptr %0, i64 304
  %22 = load i64, ptr %21, align 8
  %23 = icmp sgt i64 %1, %22
  br i1 %23, label %24, label %are_peers.exit.thread

24:                                               ; preds = %20
  %25 = getelementptr inbounds nuw i8, ptr %0, i64 8
  %26 = load ptr, ptr %25, align 8
  %27 = getelementptr inbounds nuw i8, ptr %26, i64 136
  %28 = load i32, ptr %27, align 8
  %29 = icmp eq i32 %28, 0
  br i1 %29, label %are_peers.exit.thread, label %30

30:                                               ; preds = %24
  %31 = getelementptr inbounds nuw i8, ptr %0, i64 216
  %32 = load ptr, ptr %31, align 8
  %33 = getelementptr inbounds nuw i8, ptr %0, i64 568
  %34 = load ptr, ptr %33, align 8
  %35 = getelementptr inbounds nuw i8, ptr %34, i64 24
  store ptr %2, ptr %35, align 8
  %36 = getelementptr inbounds nuw i8, ptr %34, i64 16
  store ptr %32, ptr %36, align 8
  %37 = getelementptr inbounds nuw i8, ptr %0, i64 264
  %38 = load ptr, ptr %37, align 8
  call void @llvm.lifetime.start.p0(i64 1, ptr nonnull %4) #9
  %39 = icmp eq ptr %38, null
  br i1 %39, label %are_peers.exit.thread61, label %are_peers.exit

are_peers.exit.thread61:                          ; preds = %30
  call void @llvm.lifetime.end.p0(i64 1, ptr nonnull %4) #9
  %40 = getelementptr inbounds nuw i8, ptr %34, i64 40
  %41 = load ptr, ptr %40, align 8
  tail call void @MemoryContextReset(ptr noundef %41) #9
  br label %are_peers.exit.thread

are_peers.exit:                                   ; preds = %30
  %42 = getelementptr inbounds nuw i8, ptr %34, i64 40
  %43 = load ptr, ptr %42, align 8
  %44 = load ptr, ptr @CurrentMemoryContext, align 8
  store ptr %43, ptr @CurrentMemoryContext, align 8
  %45 = getelementptr inbounds nuw i8, ptr %38, i64 32
  %46 = load ptr, ptr %45, align 8
  %47 = call i64 %46(ptr noundef nonnull %38, ptr noundef nonnull %34, ptr noundef nonnull %4) #9
  store ptr %44, ptr @CurrentMemoryContext, align 8
  %.not65 = icmp eq i64 %47, 0
  call void @llvm.lifetime.end.p0(i64 1, ptr nonnull %4) #9
  %48 = load ptr, ptr %42, align 8
  call void @MemoryContextReset(ptr noundef %48) #9
  br i1 %.not65, label %.thread, label %are_peers.exit.thread

49:                                               ; preds = %10
  %50 = and i32 %6, 20480
  %.not47 = icmp eq i32 %50, 0
  br i1 %.not47, label %are_peers.exit.thread, label %51

51:                                               ; preds = %49
  %52 = and i32 %6, 4
  %.not48 = icmp eq i32 %52, 0
  br i1 %.not48, label %61, label %53

53:                                               ; preds = %51
  %54 = getelementptr inbounds nuw i8, ptr %0, i64 384
  %55 = load i64, ptr %54, align 8
  %56 = and i32 %6, 4096
  %.not51 = icmp eq i32 %56, 0
  %57 = sub i64 0, %55
  %spec.select = select i1 %.not51, i64 %55, i64 %57
  %58 = getelementptr inbounds nuw i8, ptr %0, i64 304
  %59 = load i64, ptr %58, align 8
  %60 = add i64 %59, %spec.select
  %.not52 = icmp sgt i64 %1, %60
  br i1 %.not52, label %.thread, label %are_peers.exit.thread

61:                                               ; preds = %51
  %62 = and i32 %6, 10
  %.not49 = icmp eq i32 %62, 0
  br i1 %.not49, label %are_peers.exit.thread, label %63

63:                                               ; preds = %61
  tail call fastcc void @update_frametailpos(ptr noundef nonnull %0)
  %64 = getelementptr inbounds nuw i8, ptr %0, i64 320
  %65 = load i64, ptr %64, align 8
  %.not50 = icmp slt i64 %1, %65
  br i1 %.not50, label %are_peers.exit.thread, label %.thread

are_peers.exit.thread:                            ; preds = %24, %are_peers.exit.thread61, %49, %63, %61, %53, %14, %18, %20, %are_peers.exit
  %66 = and i32 %6, 32768
  %.not55 = icmp eq i32 %66, 0
  br i1 %.not55, label %71, label %67

67:                                               ; preds = %are_peers.exit.thread
  %68 = getelementptr inbounds nuw i8, ptr %0, i64 304
  %69 = load i64, ptr %68, align 8
  %70 = icmp eq i64 %1, %69
  br i1 %70, label %.thread, label %91

71:                                               ; preds = %are_peers.exit.thread
  %72 = and i32 %6, 65536
  %.not56 = icmp eq i32 %72, 0
  br i1 %.not56, label %73, label %78

73:                                               ; preds = %71
  %74 = and i32 %6, 131072
  %.not57 = icmp eq i32 %74, 0
  br i1 %.not57, label %91, label %75

75:                                               ; preds = %73
  %76 = getelementptr inbounds nuw i8, ptr %0, i64 304
  %77 = load i64, ptr %76, align 8
  %.not58 = icmp eq i64 %1, %77
  br i1 %.not58, label %91, label %78

78:                                               ; preds = %75, %71
  %79 = getelementptr inbounds nuw i8, ptr %0, i64 8
  %80 = load ptr, ptr %79, align 8
  %81 = getelementptr inbounds nuw i8, ptr %80, i64 136
  %82 = load i32, ptr %81, align 8
  %83 = icmp eq i32 %82, 0
  br i1 %83, label %.thread, label %84

84:                                               ; preds = %78
  %85 = getelementptr inbounds nuw i8, ptr %0, i64 528
  %86 = load i64, ptr %85, align 8
  %.not59 = icmp slt i64 %1, %86
  br i1 %.not59, label %91, label %87

87:                                               ; preds = %84
  call fastcc void @update_grouptailpos(ptr noundef nonnull %0)
  %88 = getelementptr inbounds nuw i8, ptr %0, i64 536
  %89 = load i64, ptr %88, align 8
  %90 = icmp slt i64 %1, %89
  br i1 %90, label %.thread, label %91

91:                                               ; preds = %87, %84, %73, %75, %67
  br label %.thread

.thread:                                          ; preds = %87, %78, %67, %63, %are_peers.exit, %14, %3, %53, %91
  %.0 = phi i32 [ 1, %91 ], [ -1, %53 ], [ 0, %3 ], [ -1, %14 ], [ -1, %are_peers.exit ], [ -1, %63 ], [ 0, %67 ], [ 0, %78 ], [ 0, %87 ]
  ret i32 %.0
}